target datalayout = "e-m:e-p270:32:32-p271:32:32-p272:64:64-i64:64-i128:128-f80:128-n8:16:32:64-S128"
target triple = "x86_64-pc-linux-gnu"

%struct.pysqlite_state = type { ptr, ptr, ptr, ptr, ptr, ptr, ptr, ptr, ptr, ptr, ptr, ptr, ptr, i32, i32, ptr, ptr, ptr, ptr, ptr, ptr, ptr, ptr, ptr, ptr, ptr, ptr, ptr, ptr }
%struct._callback_context = type { ptr, ptr, ptr }

@PyExc_MemoryError = external global ptr, align 8
@PyExc_OverflowError = external global ptr, align 8
@.str.60 = private unnamed_addr constant [41 x i8] c"Exception ignored on sqlite3 callback %R\00", align 1

; Function Attrs: nounwind uwtable
define internal void @print_or_clear_traceback(ptr noundef %0) #0 {
  %2 = alloca ptr, align 8
  store ptr %0, ptr %2, align 8, !tbaa !64
  %3 = load ptr, ptr %2, align 8, !tbaa !64
  %4 = getelementptr inbounds nuw %struct._callback_context, ptr %3, i32 0, i32 2
  %5 = load ptr, ptr %4, align 8, !tbaa !82
  %6 = getelementptr inbounds nuw %struct.pysqlite_state, ptr %5, i32 0, i32 14
  %7 = load i32, ptr %6, align 4, !tbaa !92
  %8 = icmp ne i32 %7, 0
  br i1 %8, label %9, label %13

9:                                                ; preds = %1
  %10 = load ptr, ptr %2, align 8, !tbaa !64
  %11 = getelementptr inbounds nuw %struct._callback_context, ptr %10, i32 0, i32 0
  %12 = load ptr, ptr %11, align 8, !tbaa !51
  call void (ptr, ...) @PyErr_FormatUnraisable(ptr noundef @.str.60, ptr noundef %12)
  br label %14

13:                                               ; preds = %1
  call void @PyErr_Clear()
  br label %14

14:                                               ; preds = %13, %9
  ret void
}

; Function Attrs: nounwind uwtable
define internal void @set_sqlite_error(ptr noundef %0, ptr noundef %1) #0 {
  %3 = alloca ptr, align 8
  %4 = alloca ptr, align 8
  %5 = alloca ptr, align 8
  store ptr %0, ptr %3, align 8, !tbaa !83
  store ptr %1, ptr %4, align 8, !tbaa !42
  %6 = load ptr, ptr @PyExc_MemoryError, align 8, !tbaa !22
  %7 = call i32 @PyErr_ExceptionMatches(ptr noundef %6)
  %8 = icmp ne i32 %7, 0
  br i1 %8, label %9, label %11

9:                                                ; preds = %2
  %10 = load ptr, ptr %3, align 8, !tbaa !83
  call void @sqlite3_result_error_nomem(ptr noundef %10)
  br label %21

11:                                               ; preds = %2
  %12 = load ptr, ptr @PyExc_OverflowError, align 8, !tbaa !22
  %13 = call i32 @PyErr_ExceptionMatches(ptr noundef %12)
  %14 = icmp ne i32 %13, 0
  br i1 %14, label %15, label %17

15:                                               ; preds = %11
  %16 = load ptr, ptr %3, align 8, !tbaa !83
  call void @sqlite3_result_error_toobig(ptr noundef %16)
  br label %20

17:                                               ; preds = %11
  %18 = load ptr, ptr %3, align 8, !tbaa !83
  %19 = load ptr, ptr %4, align 8, !tbaa !42
  call void @sqlite3_result_error(ptr noundef %18, ptr noundef %19, i32 noundef -1)
  br label %20

20:                                               ; preds = %17, %15
  br label %21

21:                                               ; preds = %20, %9
  call void @llvm.lifetime.start.p0(i64 8, ptr %5) #8
  %22 = load ptr, ptr %3, align 8, !tbaa !83
  %23 = call ptr @sqlite3_user_data(ptr noundef %22)
  store ptr %23, ptr %5, align 8, !tbaa !64
  %24 = load ptr, ptr %5, align 8, !tbaa !64
  call void @print_or_clear_traceback(ptr noundef %24)
  call void @llvm.lifetime.end.p0(i64 8, ptr %5) #8
  ret void
}