; Function Attrs: nounwind uwtable
define internal fastcc void @set_sqlite_error(ptr noundef %0, ptr noundef %1) unnamed_addr #0 {
  %3 = load ptr, ptr @PyExc_MemoryError, align 8, !tbaa !25
  %4 = tail call i32 @PyErr_ExceptionMatches(ptr noundef %3) #7
  %.not = icmp eq i32 %4, 0
  br i1 %.not, label %6, label %5

5:                                                ; preds = %2
  tail call void @sqlite3_result_error_nomem(ptr noundef %0) #7
  br label %11

6:                                                ; preds = %2
  %7 = load ptr, ptr @PyExc_OverflowError, align 8, !tbaa !25
  %8 = tail call i32 @PyErr_ExceptionMatches(ptr noundef %7) #7
  %.not6 = icmp eq i32 %8, 0
  br i1 %.not6, label %10, label %9

9:                                                ; preds = %6
  tail call void @sqlite3_result_error_toobig(ptr noundef %0) #7
  br label %11

10:                                               ; preds = %6
  tail call void @sqlite3_result_error(ptr noundef %0, ptr noundef %1, i32 noundef -1) #7
  br label %11

11:                                               ; preds = %9, %10, %5
  %12 = tail call ptr @sqlite3_user_data(ptr noundef %0) #7
  %13 = getelementptr inbounds nuw i8, ptr %12, i64 16
  %14 = load ptr, ptr %13, align 8, !tbaa !87
  %15 = getelementptr inbounds nuw i8, ptr %14, i64 108
  %16 = load i32, ptr %15, align 4, !tbaa !99
  %.not.i = icmp eq i32 %16, 0
  br i1 %.not.i, label %19, label %17

17:                                               ; preds = %11
  %18 = load ptr, ptr %12, align 8, !tbaa !77
  tail call void (ptr, ...) @PyErr_FormatUnraisable(ptr noundef nonnull @.str.60, ptr noundef %18) #7
  br label %print_or_clear_traceback.exit

19:                                               ; preds = %11
  tail call void @PyErr_Clear() #7
  br label %print_or_clear_traceback.exit

print_or_clear_traceback.exit:                    ; preds = %17, %19
  ret void
}